target datalayout = "e-m:e-p270:32:32-p271:32:32-p272:64:64-i64:64-i128:128-f80:128-n8:16:32:64-S128"
target triple = "x86_64-pc-linux-gnu"

%struct._zend_refcounted_h = type { i32, %union.anon }
%union.anon = type { i32 }
%struct._zval_struct = type { %union._zend_value, %union.anon.0, %union.anon.3 }
%union._zend_value = type { i64 }
%union.anon.0 = type { i32 }
%union.anon.3 = type { i32 }
%struct._zend_op_array = type { i8, [3 x i8], i32, ptr, ptr, ptr, i32, i32, ptr, ptr, ptr, ptr, i32, ptr, i32, i32, i32, ptr, ptr, ptr, ptr, ptr, i32, i32, ptr, ptr, ptr, i32, i32, i32, i32, ptr, ptr, [6 x ptr] }
%struct._zend_generator = type { %struct._zend_object, ptr, ptr, %struct._zval_struct, %struct._zval_struct, %struct._zval_struct, ptr, i64, %struct._zval_struct, %struct._zend_generator_node, %struct._zend_execute_data, ptr, i8 }
%struct._zend_object = type { %struct._zend_refcounted_h, i32, i32, ptr, ptr, ptr, [1 x %struct._zval_struct] }
%struct._zend_generator_node = type { ptr, i32, %union.anon.4, %union.anon.5 }
%union.anon.4 = type { ptr }
%union.anon.5 = type { ptr }
%struct._zend_execute_data = type { ptr, ptr, ptr, ptr, %struct._zval_struct, ptr, ptr, ptr, ptr }
%struct._zend_object_iterator = type { %struct._zend_object, %struct._zval_struct, ptr, i64 }

@.str.27 = private unnamed_addr constant [44 x i8] c"Cannot traverse an already closed generator\00", align 1
@.str.28 = private unnamed_addr constant [89 x i8] c"You can only iterate a generator by-reference if it declared that it yields by-reference\00", align 1

; Function Attrs: alwaysinline nounwind uwtable
define internal i32 @zend_gc_addref(ptr noundef %0) #2 {
  %2 = alloca ptr, align 8
  store ptr %0, ptr %2, align 8, !tbaa !113
  br label %3

3:                                                ; preds = %1
  br label %4

4:                                                ; preds = %3
  %5 = load ptr, ptr %2, align 8, !tbaa !113
  %6 = getelementptr inbounds nuw %struct._zend_refcounted_h, ptr %5, i32 0, i32 0
  %7 = load i32, ptr %6, align 4, !tbaa !115
  %8 = add i32 %7, 1
  store i32 %8, ptr %6, align 4, !tbaa !115
  ret i32 %8
}

; Function Attrs: nounwind uwtable
define internal ptr @zend_generator_get_iterator(ptr noundef %0, ptr noundef %1, i32 noundef %2) #0 {
  %4 = alloca ptr, align 8
  %5 = alloca ptr, align 8
  %6 = alloca ptr, align 8
  %7 = alloca i32, align 4
  %8 = alloca ptr, align 8
  %9 = alloca ptr, align 8
  %10 = alloca i32, align 4
  %11 = alloca ptr, align 8
  %12 = alloca ptr, align 8
  store ptr %0, ptr %5, align 8, !tbaa !80
  store ptr %1, ptr %6, align 8, !tbaa !36
  store i32 %2, ptr %7, align 4, !tbaa !32
  call void @llvm.lifetime.start.p0(i64 8, ptr %8) #11
  call void @llvm.lifetime.start.p0(i64 8, ptr %9) #11
  %13 = load ptr, ptr %6, align 8, !tbaa !36
  %14 = getelementptr inbounds nuw %struct._zval_struct, ptr %13, i32 0, i32 0
  %15 = load ptr, ptr %14, align 8, !tbaa !26
  store ptr %15, ptr %9, align 8, !tbaa !4
  %16 = load ptr, ptr %9, align 8, !tbaa !4
  %17 = getelementptr inbounds nuw %struct._zend_generator, ptr %16, i32 0, i32 1
  %18 = load ptr, ptr %17, align 8, !tbaa !30
  %19 = icmp ne ptr %18, null
  br i1 %19, label %22, label %20

20:                                               ; preds = %3
  %21 = call ptr @zend_throw_exception(ptr noundef null, ptr noundef @.str.27, i64 noundef 0)
  store ptr null, ptr %4, align 8
  store i32 1, ptr %10, align 4
  br label %65

22:                                               ; preds = %3
  %23 = load i32, ptr %7, align 4, !tbaa !32
  %24 = icmp ne i32 %23, 0
  %25 = xor i1 %24, true
  %26 = xor i1 %25, true
  %27 = zext i1 %26 to i32
  %28 = sext i32 %27 to i64
  %29 = call i64 @llvm.expect.i64(i64 %28, i64 0)
  %30 = icmp ne i64 %29, 0
  br i1 %30, label %31, label %43

31:                                               ; preds = %22
  %32 = load ptr, ptr %9, align 8, !tbaa !4
  %33 = getelementptr inbounds nuw %struct._zend_generator, ptr %32, i32 0, i32 1
  %34 = load ptr, ptr %33, align 8, !tbaa !30
  %35 = getelementptr inbounds nuw %struct._zend_execute_data, ptr %34, i32 0, i32 3
  %36 = load ptr, ptr %35, align 8, !tbaa !27
  %37 = getelementptr inbounds nuw %struct._zend_op_array, ptr %36, i32 0, i32 2
  %38 = load i32, ptr %37, align 4, !tbaa !26
  %39 = and i32 %38, 4096
  %40 = icmp ne i32 %39, 0
  br i1 %40, label %43, label %41

41:                                               ; preds = %31
  %42 = call ptr @zend_throw_exception(ptr noundef null, ptr noundef @.str.28, i64 noundef 0)
  store ptr null, ptr %4, align 8
  store i32 1, ptr %10, align 4
  br label %65

43:                                               ; preds = %31, %22
  %44 = call noalias ptr @_emalloc_96()
  store ptr %44, ptr %8, align 8, !tbaa !122
  %45 = load ptr, ptr %8, align 8, !tbaa !122
  call void @zend_iterator_init(ptr noundef %45)
  %46 = load ptr, ptr %8, align 8, !tbaa !122
  %47 = getelementptr inbounds nuw %struct._zend_object_iterator, ptr %46, i32 0, i32 2
  store ptr @zend_generator_iterator_functions, ptr %47, align 8, !tbaa !127
  br label %48

48:                                               ; preds = %43
  call void @llvm.lifetime.start.p0(i64 8, ptr %11) #11
  %49 = load ptr, ptr %8, align 8, !tbaa !122
  %50 = getelementptr inbounds nuw %struct._zend_object_iterator, ptr %49, i32 0, i32 1
  store ptr %50, ptr %11, align 8, !tbaa !36
  call void @llvm.lifetime.start.p0(i64 8, ptr %12) #11
  %51 = load ptr, ptr %6, align 8, !tbaa !36
  %52 = getelementptr inbounds nuw %struct._zval_struct, ptr %51, i32 0, i32 0
  %53 = load ptr, ptr %52, align 8, !tbaa !26
  store ptr %53, ptr %12, align 8, !tbaa !59
  %54 = load ptr, ptr %12, align 8, !tbaa !59
  %55 = getelementptr inbounds nuw %struct._zend_object, ptr %54, i32 0, i32 0
  %56 = call i32 @zend_gc_addref(ptr noundef %55)
  %57 = load ptr, ptr %12, align 8, !tbaa !59
  %58 = load ptr, ptr %11, align 8, !tbaa !36
  %59 = getelementptr inbounds nuw %struct._zval_struct, ptr %58, i32 0, i32 0
  store ptr %57, ptr %59, align 8, !tbaa !26
  %60 = load ptr, ptr %11, align 8, !tbaa !36
  %61 = getelementptr inbounds nuw %struct._zval_struct, ptr %60, i32 0, i32 1
  store i32 776, ptr %61, align 8, !tbaa !26
  call void @llvm.lifetime.end.p0(i64 8, ptr %12) #11
  call void @llvm.lifetime.end.p0(i64 8, ptr %11) #11
  br label %62

62:                                               ; preds = %48
  br label %63

63:                                               ; preds = %62
  %64 = load ptr, ptr %8, align 8, !tbaa !122
  store ptr %64, ptr %4, align 8
  store i32 1, ptr %10, align 4
  br label %65

65:                                               ; preds = %63, %41, %20
  call void @llvm.lifetime.end.p0(i64 8, ptr %9) #11
  call void @llvm.lifetime.end.p0(i64 8, ptr %8) #11
  %66 = load ptr, ptr %4, align 8
  ret ptr %66
}