; Function Attrs: nounwind uwtable
define internal noundef ptr @zend_generator_get_iterator(ptr readnone captures(none) %0, ptr noundef readonly captures(none) %1, i32 noundef %2) #0 {
  %4 = load ptr, ptr %1, align 8, !tbaa !24
  %5 = getelementptr inbounds nuw i8, ptr %4, i64 56
  %6 = load ptr, ptr %5, align 8, !tbaa !56
  %.not = icmp eq ptr %6, null
  br i1 %.not, label %7, label %9

7:                                                ; preds = %3
  %8 = tail call ptr @zend_throw_exception(ptr noundef null, ptr noundef nonnull @.str.27, i64 noundef 0) #11
  br label %26

9:                                                ; preds = %3
  %.not14 = icmp eq i32 %2, 0
  br i1 %.not14, label %18, label %10, !prof !58

10:                                               ; preds = %9
  %11 = getelementptr inbounds nuw i8, ptr %6, i64 24
  %12 = load ptr, ptr %11, align 8, !tbaa !25
  %13 = getelementptr inbounds nuw i8, ptr %12, i64 4
  %14 = load i32, ptr %13, align 4, !tbaa !24
  %15 = and i32 %14, 4096
  %.not15 = icmp eq i32 %15, 0
  br i1 %.not15, label %16, label %18

16:                                               ; preds = %10
  %17 = tail call ptr @zend_throw_exception(ptr noundef null, ptr noundef nonnull @.str.28, i64 noundef 0) #11
  br label %26

18:                                               ; preds = %10, %9
  %19 = tail call noalias ptr @_emalloc_96() #11
  tail call void @zend_iterator_init(ptr noundef %19) #11
  %20 = getelementptr inbounds nuw i8, ptr %19, i64 72
  store ptr @zend_generator_iterator_functions, ptr %20, align 8, !tbaa !119
  %21 = getelementptr inbounds nuw i8, ptr %19, i64 56
  %22 = load ptr, ptr %1, align 8, !tbaa !24
  %23 = load i32, ptr %22, align 4, !tbaa !65
  %24 = add i32 %23, 1
  store i32 %24, ptr %22, align 4, !tbaa !65
  store ptr %22, ptr %21, align 8, !tbaa !24
  %25 = getelementptr inbounds nuw i8, ptr %19, i64 64
  store i32 776, ptr %25, align 8, !tbaa !24
  br label %26

26:                                               ; preds = %18, %16, %7
  %.0 = phi ptr [ %19, %18 ], [ null, %16 ], [ null, %7 ]
  ret ptr %.0
}